target datalayout = "e-m:e-p270:32:32-p271:32:32-p272:64:64-i64:64-i128:128-f80:128-n8:16:32:64-S128"
target triple = "x86_64-pc-linux-gnu"

%class.Semaphore = type { %class.PosixSemaphore }
%class.PosixSemaphore = type { %union.sem_t }
%union.sem_t = type { i64, [24 x i8] }
%class.LogDecorators = type { i32 }
%class.outputStream = type { ptr, i32, i8, i32, i64, %class.TimeStamp, ptr, i64 }
%class.TimeStamp = type { i64 }
%class.ConfigurationLock = type { i8 }
%class.LogOutput = type <{ ptr, i8, [7 x i8], %class.stringStream, %class.LogDecorators, [4 x i8] }>
%class.stringStream = type <{ %class.outputStream, ptr, i64, i64, i8, [48 x i8], [7 x i8] }>

@_ZN16LogConfiguration8_outputsE = hidden global ptr null, align 8
@_ZN16LogConfiguration10_n_outputsE = hidden global i64 0, align 8
@_ZN17ConfigurationLock10_semaphoreE = hidden global %class.Semaphore zeroinitializer, align 8
@.str.27 = private unnamed_addr constant [26 x i8] c"Log output configuration:\00", align 1
@.str.28 = private unnamed_addr constant [8 x i8] c" #%lu: \00", align 1
@.str.29 = private unnamed_addr constant [16 x i8] c" (reconfigured)\00", align 1

; Function Attrs: mustprogress nounwind uwtable
define linkonce_odr hidden void @_ZN9Semaphore6signalEj(ptr noundef nonnull align 8 dereferenceable(32) %0, i32 noundef %1) #1 comdat align 2 {
  %3 = alloca ptr, align 8
  %4 = alloca i32, align 4
  store ptr %0, ptr %3, align 8
  store i32 %1, ptr %4, align 4
  %5 = load ptr, ptr %3, align 8
  %6 = getelementptr inbounds %class.Semaphore, ptr %5, i32 0, i32 0
  %7 = load i32, ptr %4, align 4
  call void @_ZN14PosixSemaphore6signalEj(ptr noundef nonnull align 8 dereferenceable(32) %6, i32 noundef %7)
  ret void
}

; Function Attrs: mustprogress nounwind uwtable
define linkonce_odr hidden noundef zeroext i1 @_ZNK9LogOutput15is_reconfiguredEv(ptr noundef nonnull align 8 dereferenceable(156) %0) #1 comdat align 2 {
  %2 = alloca ptr, align 8
  store ptr %0, ptr %2, align 8
  %3 = load ptr, ptr %2, align 8
  %4 = getelementptr inbounds %class.LogOutput, ptr %3, i32 0, i32 1
  %5 = load i8, ptr %4, align 8
  %6 = trunc i8 %5 to i1
  ret i1 %6
}

; Function Attrs: mustprogress nounwind uwtable
define linkonce_odr hidden void @_ZN9Semaphore4waitEv(ptr noundef nonnull align 8 dereferenceable(32) %0) #1 comdat align 2 {
  %2 = alloca ptr, align 8
  store ptr %0, ptr %2, align 8
  %3 = load ptr, ptr %2, align 8
  %4 = getelementptr inbounds %class.Semaphore, ptr %3, i32 0, i32 0
  call void @_ZN14PosixSemaphore4waitEv(ptr noundef nonnull align 8 dereferenceable(32) %4)
  ret void
}

; Function Attrs: mustprogress nounwind uwtable
define linkonce_odr hidden void @_ZN17ConfigurationLockD2Ev(ptr noundef nonnull align 1 dereferenceable(1) %0) unnamed_addr #1 comdat align 2 {
  %2 = alloca ptr, align 8
  store ptr %0, ptr %2, align 8
  call void @_ZN9Semaphore6signalEj(ptr noundef nonnull align 8 dereferenceable(32) @_ZN17ConfigurationLock10_semaphoreE, i32 noundef 1)
  ret void
}

; Function Attrs: mustprogress nounwind uwtable
define hidden void @_ZN16LogConfiguration30describe_current_configurationEP12outputStream(ptr noundef %0) #1 align 2 {
  %2 = alloca ptr, align 8
  %3 = alloca i64, align 8
  store ptr %0, ptr %2, align 8
  %4 = load ptr, ptr %2, align 8
  call void (ptr, ptr, ...) @_ZN12outputStream8print_crEPKcz(ptr noundef nonnull align 8 dereferenceable(56) %4, ptr noundef @.str.27)
  store i64 0, ptr %3, align 8
  br label %5

5:                                                ; preds = %29, %1
  %6 = load i64, ptr %3, align 8
  %7 = load i64, ptr @_ZN16LogConfiguration10_n_outputsE, align 8
  %8 = icmp ult i64 %6, %7
  br i1 %8, label %9, label %32

9:                                                ; preds = %5
  %10 = load ptr, ptr %2, align 8
  %11 = load i64, ptr %3, align 8
  call void (ptr, ptr, ...) @_ZN12outputStream5printEPKcz(ptr noundef nonnull align 8 dereferenceable(56) %10, ptr noundef @.str.28, i64 noundef %11)
  %12 = load ptr, ptr @_ZN16LogConfiguration8_outputsE, align 8
  %13 = load i64, ptr %3, align 8
  %14 = getelementptr inbounds ptr, ptr %12, i64 %13
  %15 = load ptr, ptr %14, align 8
  %16 = load ptr, ptr %2, align 8
  %17 = load ptr, ptr %15, align 8
  %18 = getelementptr inbounds ptr, ptr %17, i64 3
  %19 = load ptr, ptr %18, align 8
  call void %19(ptr noundef nonnull align 8 dereferenceable(156) %15, ptr noundef %16)
  %20 = load ptr, ptr @_ZN16LogConfiguration8_outputsE, align 8
  %21 = load i64, ptr %3, align 8
  %22 = getelementptr inbounds ptr, ptr %20, i64 %21
  %23 = load ptr, ptr %22, align 8
  %24 = call noundef zeroext i1 @_ZNK9LogOutput15is_reconfiguredEv(ptr noundef nonnull align 8 dereferenceable(156) %23)
  br i1 %24, label %25, label %27

25:                                               ; preds = %9
  %26 = load ptr, ptr %2, align 8
  call void (ptr, ptr, ...) @_ZN12outputStream5printEPKcz(ptr noundef nonnull align 8 dereferenceable(56) %26, ptr noundef @.str.29)
  br label %27

27:                                               ; preds = %25, %9
  %28 = load ptr, ptr %2, align 8
  call void @_ZN12outputStream2crEv(ptr noundef nonnull align 8 dereferenceable(56) %28)
  br label %29

29:                                               ; preds = %27
  %30 = load i64, ptr %3, align 8
  %31 = add i64 %30, 1
  store i64 %31, ptr %3, align 8
  br label %5, !llvm.loop !10

32:                                               ; preds = %5
  ret void
}

; Function Attrs: mustprogress nounwind uwtable
define linkonce_odr hidden void @_ZN17ConfigurationLockC2Ev(ptr noundef nonnull align 1 dereferenceable(1) %0) unnamed_addr #1 comdat align 2 {
  %2 = alloca ptr, align 8
  store ptr %0, ptr %2, align 8
  call void @_ZN9Semaphore4waitEv(ptr noundef nonnull align 8 dereferenceable(32) @_ZN17ConfigurationLock10_semaphoreE)
  ret void
}

; Function Attrs: mustprogress nounwind uwtable
define hidden void @_ZN16LogConfiguration8describeEP12outputStream(ptr noundef %0) #1 align 2 {
  %2 = alloca ptr, align 8
  %3 = alloca %class.ConfigurationLock, align 1
  store ptr %0, ptr %2, align 8
  %4 = load ptr, ptr %2, align 8
  call void @_ZN16LogConfiguration18describe_availableEP12outputStream(ptr noundef %4)
  call void @_ZN17ConfigurationLockC2Ev(ptr noundef nonnull align 1 dereferenceable(1) %3)
  %5 = load ptr, ptr %2, align 8
  call void @_ZN16LogConfiguration30describe_current_configurationEP12outputStream(ptr noundef %5)
  call void @_ZN17ConfigurationLockD2Ev(ptr noundef nonnull align 1 dereferenceable(1) %3) #2
  ret void
}