; Function Attrs: mustprogress nounwind uwtable
define hidden void @_ZN16LogConfiguration8describeEP12outputStream(ptr noundef nonnull %0) local_unnamed_addr #0 align 2 {
  tail call void @_ZN16LogConfiguration18describe_availableEP12outputStream(ptr noundef %0)
  tail call void @_ZN14PosixSemaphore4waitEv(ptr noundef nonnull align 8 dereferenceable(32) @_ZN17ConfigurationLock10_semaphoreE) #11
  tail call void (ptr, ptr, ...) @_ZN12outputStream8print_crEPKcz(ptr noundef nonnull align 8 dereferenceable(56) %0, ptr noundef nonnull @.str.27) #11
  %2 = load i64, ptr @_ZN16LogConfiguration10_n_outputsE, align 8
  %.not.i = icmp eq i64 %2, 0
  br i1 %.not.i, label %_ZN16LogConfiguration30describe_current_configurationEP12outputStream.exit, label %.lr.ph.i

.lr.ph.i:                                         ; preds = %1, %16
  %.09.i = phi i64 [ %17, %16 ], [ 0, %1 ]
  tail call void (ptr, ptr, ...) @_ZN12outputStream5printEPKcz(ptr noundef nonnull align 8 dereferenceable(56) %0, ptr noundef nonnull @.str.28, i64 noundef %.09.i) #11
  %3 = load ptr, ptr @_ZN16LogConfiguration8_outputsE, align 8
  %4 = getelementptr inbounds ptr, ptr %3, i64 %.09.i
  %5 = load ptr, ptr %4, align 8
  %6 = load ptr, ptr %5, align 8
  %7 = getelementptr inbounds i8, ptr %6, i64 24
  %8 = load ptr, ptr %7, align 8
  tail call void %8(ptr noundef nonnull align 8 dereferenceable(156) %5, ptr noundef nonnull %0) #11
  %9 = load ptr, ptr @_ZN16LogConfiguration8_outputsE, align 8
  %10 = getelementptr inbounds ptr, ptr %9, i64 %.09.i
  %11 = load ptr, ptr %10, align 8
  %12 = getelementptr inbounds i8, ptr %11, i64 8
  %13 = load i8, ptr %12, align 8
  %14 = trunc i8 %13 to i1
  br i1 %14, label %15, label %16

15:                                               ; preds = %.lr.ph.i
  tail call void (ptr, ptr, ...) @_ZN12outputStream5printEPKcz(ptr noundef nonnull align 8 dereferenceable(56) %0, ptr noundef nonnull @.str.29) #11
  br label %16

16:                                               ; preds = %15, %.lr.ph.i
  tail call void @_ZN12outputStream2crEv(ptr noundef nonnull align 8 dereferenceable(56) %0) #11
  %17 = add nuw i64 %.09.i, 1
  %18 = load i64, ptr @_ZN16LogConfiguration10_n_outputsE, align 8
  %19 = icmp ult i64 %17, %18
  br i1 %19, label %.lr.ph.i, label %_ZN16LogConfiguration30describe_current_configurationEP12outputStream.exit, !llvm.loop !8

_ZN16LogConfiguration30describe_current_configurationEP12outputStream.exit: ; preds = %16, %1
  tail call void @_ZN14PosixSemaphore6signalEj(ptr noundef nonnull align 8 dereferenceable(32) @_ZN17ConfigurationLock10_semaphoreE, i32 noundef 1) #11
  ret void
}